; Function Attrs: mustprogress nofree norecurse nosync nounwind willreturn memory(argmem: readwrite) uwtable
define dso_local void @_ZN4llvm11Instruction16setFastMathFlagsENS_13FastMathFlagsE(ptr nocapture noundef nonnull align 8 dereferenceable(72) %0, i32 %1) local_unnamed_addr #6 align 2 {
  %3 = getelementptr inbounds nuw i8, ptr %0, i64 1
  %4 = load i8, ptr %3, align 1
  %5 = trunc i32 %1 to i8
  %6 = shl i8 %5, 1
  %7 = or i8 %4, %6
  store i8 %7, ptr %3, align 1
  ret void
}